target datalayout = "e-m:e-p270:32:32-p271:32:32-p272:64:64-i64:64-i128:128-f80:128-n8:16:32:64-S128"
target triple = "x86_64-pc-linux-gnu"

%struct.ec_group_st = type { ptr, ptr, %struct.bignum_st, %struct.bignum_st, i32, ptr, %struct.bignum_st, %struct.bignum_st, %struct.bignum_st, i32, ptr, %struct.bignum_st }
%struct.bignum_st = type { ptr, i32, i32, i32, i32 }
%struct.ec_point_st = type { ptr, %struct.bignum_st, %struct.bignum_st, %struct.bignum_st }

@.str = private unnamed_addr constant [118 x i8] c"generated/home/dtcxzyw/WorkSpace/Projects/compilers/llvm-opt-benchmark/bench/libquic/libquic/boringssl/crypto/ec/ec.c\00", align 1

; Function Attrs: nounwind uwtable
define hidden i32 @ec_point_set_Jprojective_coordinates_GFp(ptr noundef %0, ptr noundef %1, ptr noundef %2, ptr noundef %3, ptr noundef %4, ptr noundef %5) #1 {
  %7 = alloca i32, align 4
  %8 = alloca ptr, align 8
  %9 = alloca ptr, align 8
  %10 = alloca ptr, align 8
  %11 = alloca ptr, align 8
  %12 = alloca ptr, align 8
  %13 = alloca ptr, align 8
  store ptr %0, ptr %8, align 8, !tbaa !13
  store ptr %1, ptr %9, align 8, !tbaa !29
  store ptr %2, ptr %10, align 8, !tbaa !22
  store ptr %3, ptr %11, align 8, !tbaa !22
  store ptr %4, ptr %12, align 8, !tbaa !22
  store ptr %5, ptr %13, align 8, !tbaa !24
  %14 = load ptr, ptr %8, align 8, !tbaa !13
  %15 = getelementptr inbounds nuw %struct.ec_group_st, ptr %14, i32 0, i32 0
  %16 = load ptr, ptr %15, align 8, !tbaa !15
  %17 = load ptr, ptr %9, align 8, !tbaa !29
  %18 = getelementptr inbounds nuw %struct.ec_point_st, ptr %17, i32 0, i32 0
  %19 = load ptr, ptr %18, align 8, !tbaa !31
  %20 = icmp ne ptr %16, %19
  br i1 %20, label %21, label %22

21:                                               ; preds = %6
  call void @ERR_put_error(i32 noundef 15, i32 noundef 0, i32 noundef 106, ptr noundef @.str, i32 noundef 895)
  store i32 0, ptr %7, align 4
  br label %30

22:                                               ; preds = %6
  %23 = load ptr, ptr %8, align 8, !tbaa !13
  %24 = load ptr, ptr %9, align 8, !tbaa !29
  %25 = load ptr, ptr %10, align 8, !tbaa !22
  %26 = load ptr, ptr %11, align 8, !tbaa !22
  %27 = load ptr, ptr %12, align 8, !tbaa !22
  %28 = load ptr, ptr %13, align 8, !tbaa !24
  %29 = call i32 @ec_GFp_simple_set_Jprojective_coordinates_GFp(ptr noundef %23, ptr noundef %24, ptr noundef %25, ptr noundef %26, ptr noundef %27, ptr noundef %28)
  store i32 %29, ptr %7, align 4
  br label %30

30:                                               ; preds = %22, %21
  %31 = load i32, ptr %7, align 4
  ret i32 %31
}