; Function Attrs: nounwind uwtable
define hidden i32 @ec_point_set_Jprojective_coordinates_GFp(ptr noundef %0, ptr noundef %1, ptr noundef %2, ptr noundef %3, ptr noundef %4, ptr noundef %5) local_unnamed_addr #1 {
  %7 = load ptr, ptr %0, align 8, !tbaa !11
  %8 = load ptr, ptr %1, align 8, !tbaa !23
  %.not = icmp eq ptr %7, %8
  br i1 %.not, label %10, label %9

9:                                                ; preds = %6
  tail call void @ERR_put_error(i32 noundef 15, i32 noundef 0, i32 noundef 106, ptr noundef nonnull @.str, i32 noundef 895) #11
  br label %12

10:                                               ; preds = %6
  %11 = tail call i32 @ec_GFp_simple_set_Jprojective_coordinates_GFp(ptr noundef nonnull %0, ptr noundef nonnull %1, ptr noundef %2, ptr noundef %3, ptr noundef %4, ptr noundef %5) #11
  br label %12

12:                                               ; preds = %10, %9
  %.0 = phi i32 [ 0, %9 ], [ %11, %10 ]
  ret i32 %.0
}